; Function Attrs: mustprogress uwtable
define internal noundef nonnull align 8 dereferenceable(8) ptr @_ZNK5arrow4util12_GLOBAL__N_131ThrottledAsyncTaskSchedulerImpl4spanEv(ptr nocapture noundef nonnull readonly align 8 dereferenceable(88) %this) unnamed_addr #0 align 2 {
entry:
  %target_ = getelementptr inbounds i8, ptr %this, i64 24
  %0 = load ptr, ptr %target_, align 8
  %vtable = load ptr, ptr %0, align 8
  %vfn = getelementptr inbounds i8, ptr %vtable, i64 24
  %1 = load ptr, ptr %vfn, align 8
  %call = tail call noundef nonnull align 8 dereferenceable(8) ptr %1(ptr noundef nonnull align 8 dereferenceable(8) %0)
  ret ptr %call
}